target datalayout = "e-m:e-p270:32:32-p271:32:32-p272:64:64-i64:64-i128:128-f80:128-n8:16:32:64-S128"
target triple = "x86_64-pc-linux-gnu"

%"class.clang::SourceLocation" = type { i32 }
%"struct.clang::detail::SearchDirIteratorImpl.441" = type { ptr, i64 }
%"struct.clang::HeaderSearch::LookupFileCacheInfo" = type { ptr, %"struct.clang::detail::SearchDirIteratorImpl.441", %"struct.clang::detail::SearchDirIteratorImpl.441", ptr }

; Function Attrs: mustprogress nounwind uwtable
define dso_local void @_ZN5clang12HeaderSearch18cacheLookupSuccessERNS0_19LookupFileCacheInfoENS_6detail21SearchDirIteratorImplILb1EEENS_14SourceLocationE(ptr noundef nonnull align 8 dereferenceable(2192) %0, ptr noundef nonnull align 8 dereferenceable(48) %1, ptr %2, i64 %3, i32 %4) #0 align 2 {
  %6 = alloca %"struct.clang::detail::SearchDirIteratorImpl.441", align 8
  %7 = alloca %"class.clang::SourceLocation", align 4
  %8 = alloca ptr, align 8
  %9 = alloca ptr, align 8
  %10 = alloca %"class.clang::SourceLocation", align 4
  %11 = getelementptr inbounds nuw { ptr, i64 }, ptr %6, i32 0, i32 0
  store ptr %2, ptr %11, align 8
  %12 = getelementptr inbounds nuw { ptr, i64 }, ptr %6, i32 0, i32 1
  store i64 %3, ptr %12, align 8
  %13 = getelementptr inbounds nuw %"class.clang::SourceLocation", ptr %7, i32 0, i32 0
  store i32 %4, ptr %13, align 4
  store ptr %0, ptr %8, align 8
  store ptr %1, ptr %9, align 8
  %14 = load ptr, ptr %8, align 8
  %15 = load ptr, ptr %9, align 8
  %16 = getelementptr inbounds nuw %"struct.clang::HeaderSearch::LookupFileCacheInfo", ptr %15, i32 0, i32 2
  call void @llvm.memcpy.p0.p0.i64(ptr align 8 %16, ptr align 8 %6, i64 16, i1 false)
  %17 = getelementptr inbounds nuw %"struct.clang::detail::SearchDirIteratorImpl.441", ptr %6, i32 0, i32 1
  %18 = load i64, ptr %17, align 8
  %19 = trunc i64 %18 to i32
  call void @llvm.memcpy.p0.p0.i64(ptr align 4 %10, ptr align 4 %7, i64 4, i1 false)
  %20 = getelementptr inbounds nuw %"class.clang::SourceLocation", ptr %10, i32 0, i32 0
  %21 = load i32, ptr %20, align 4
  call void @_ZN5clang12HeaderSearch15noteLookupUsageEjNS_14SourceLocationE(ptr noundef nonnull align 8 dereferenceable(2192) %14, i32 noundef %19, i32 %21)
  ret void
}