; Function Attrs: mustprogress nounwind uwtable
define dso_local void @_ZN5clang12HeaderSearch18cacheLookupSuccessERNS0_19LookupFileCacheInfoENS_6detail21SearchDirIteratorImplILb1EEENS_14SourceLocationE(ptr nocapture noundef nonnull readonly align 8 dereferenceable(2192) %0, ptr nocapture noundef nonnull writeonly align 8 dereferenceable(48) %1, ptr %2, i64 %3, i32 %4) local_unnamed_addr #0 align 2 {
  %6 = getelementptr inbounds nuw i8, ptr %1, i64 24
  store ptr %2, ptr %6, align 8
  %.sroa.2.0..sroa_idx = getelementptr inbounds i8, ptr %1, i64 32
  store i64 %3, ptr %.sroa.2.0..sroa_idx, align 8
  %7 = trunc i64 %3 to i32
  tail call void @_ZN5clang12HeaderSearch15noteLookupUsageEjNS_14SourceLocationE(ptr noundef nonnull align 8 dereferenceable(2192) %0, i32 noundef %7, i32 %4)
  ret void
}